(lp1
(lp2
I8
aI5
aI0
aI0
aa(lp3
I20
aI13
aI0
aI0
aa(lp4
I12
aI2
aI0
aI0
aa(lp5
I4
aI2
aI0
aI0
aa(lp6
I28
aI20
aI0
aI0
aa(lp7
I14
aI10
aI0
aI0
aa(lp8
I20
aI13
aI0
aI0
aa(lp9
I20
aI16
aI0
aI0
aa(lp10
I20
aI15
aI0
aI0
aa(lp11
I15
aI6
aI0
aI0
aa(lp12
I6
aI2
aI0
aI0
aa(lp13
I13
aI7
aI0
aI0
aa(lp14
I11
aI5
aI0
aI0
aa(lp15
I25
aI18
aI0
aI0
aa(lp16
I10
aI7
aI0
aI0
aa(lp17
I24
aI19
aI0
aI0
aa(lp18
I26
aI22
aI0
aI0
aa(lp19
I23
aI14
aI0
aI0
aa(lp20
I14
aI11
aI0
aI0
aa(lp21
I2
aI1
aI0
aI0
aa(lp22
I2
aI1
aI0
aI0
aa(lp23
I5
aI0
aI0
aI0
aa(lp24
I13
aI5
aI0
aI0
aa(lp25
I23
aI16
aI0
aI0
aa(lp26
I12
aI9
aI0
aI0
aa(lp27
I18
aI10
aI0
aI0
aa(lp28
I16
aI7
aI0
aI0
aa(lp29
I20
aI14
aI0
aI0
aa(lp30
I12
aI9
aI0
aI0
aa(lp31
I19
aI13
aI0
aI0
aa(lp32
I19
aI15
aI0
aI0
aa(lp33
I7
aI2
aI0
aI0
aa(lp34
I7
aI2
aI0
aI0
aa(lp35
I21
aI15
aI0
aI0
aa(lp36
I2
aI1
aI0
aI0
aa(lp37
I19
aI12
aI0
aI0
aa(lp38
I2
aI1
aI0
aI0
aa(lp39
I11
aI8
aI0
aI0
aa(lp40
I7
aI0
aI0
aI0
aa(lp41
I4
aI1
aI0
aI0
aa(lp42
I8
aI3
aI0
aI0
aa(lp43
I17
aI14
aI0
aI0
aa(lp44
I38
aI25
aI0
aI0
aa(lp45
I20
aI7
aI0
aI0
aa(lp46
I2
aI0
aI0
aI0
aa(lp47
I18
aI14
aI0
aI0
aa(lp48
I28
aI11
aI0
aI0
aa(lp49
I5
aI3
aI0
aI0
aa(lp50
I3
aI1
aI0
aI0
aa(lp51
I23
aI18
aI0
aI0
aa(lp52
I16
aI12
aI0
aI0
aa(lp53
I9
aI5
aI0
aI0
aa(lp54
I22
aI19
aI0
aI0
aa(lp55
I22
aI8
aI0
aI0
aa(lp56
I5
aI3
aI0
aI0
aa(lp57
I2
aI1
aI0
aI0
aa(lp58
I40
aI33
aI0
aI0
aa(lp59
I32
aI27
aI0
aI0
aa(lp60
I20
aI12
aI0
aI0
aa(lp61
I7
aI6
aI0
aI0
aa(lp62
I15
aI9
aI0
aI0
aa(lp63
I36
aI24
aI0
aI0
aa(lp64
I22
aI7
aI0
aI0
aa(lp65
I26
aI15
aI0
aI0
aa(lp66
I9
aI5
aI0
aI0
aa(lp67
I22
aI12
aI0
aI0
aa(lp68
I16
aI11
aI0
aI0
aa(lp69
I16
aI13
aI0
aI0
aa(lp70
I14
aI8
aI0
aI0
aa(lp71
I36
aI6
aI0
aI0
aa(lp72
I18
aI15
aI0
aI0
aa(lp73
I4
aI3
aI0
aI0
aa(lp74
I14
aI7
aI0
aI0
aa(lp75
I8
aI6
aI0
aI0
aa(lp76
I31
aI25
aI0
aI0
aa(lp77
I13
aI8
aI0
aI0
aa(lp78
I19
aI13
aI0
aI0
aa(lp79
I10
aI3
aI0
aI0
aa(lp80
I30
aI28
aI0
aI0
aa(lp81
I11
aI8
aI0
aI0
aa(lp82
I5
aI2
aI0
aI0
aa(lp83
I1
aI0
aI0
aI0
aa(lp84
I13
aI6
aI0
aI0
aa(lp85
I17
aI8
aI0
aI0
aa(lp86
I18
aI5
aI0
aI0
aa(lp87
I8
aI5
aI0
aI0
aa(lp88
I16
aI12
aI0
aI0
aa(lp89
I3
aI2
aI0
aI0
aa(lp90
I18
aI11
aI0
aI0
aa(lp91
I22
aI4
aI0
aI0
aa(lp92
I21
aI13
aI0
aI0
aa(lp93
I1
aI0
aI0
aI0
aa(lp94
I3
aI2
aI0
aI0
aa(lp95
I4
aI3
aI0
aI0
aa(lp96
I6
aI3
aI0
aI0
aa(lp97
I19
aI14
aI0
aI0
aa(lp98
I27
aI22
aI0
aI0
aa(lp99
I54
aI44
aI0
aI0
aa(lp100
I30
aI16
aI0
aI0
aa(lp101
I15
aI5
aI0
aI0
aa(lp102
I9
aI2
aI0
aI0
aa(lp103
I4
aI1
aI0
aI0
aa(lp104
I4
aI2
aI0
aI0
aa(lp105
I9
aI8
aI0
aI0
aa(lp106
I17
aI12
aI0
aI0
aa(lp107
I14
aI7
aI0
aI0
aa(lp108
I1
aI0
aI0
aI0
aa(lp109
I19
aI15
aI0
aI0
aa(lp110
I8
aI5
aI0
aI0
aa(lp111
I30
aI19
aI0
aI0
aa(lp112
I14
aI4
aI0
aI0
aa(lp113
I10
aI6
aI0
aI0
aa(lp114
I14
aI9
aI0
aI0
aa(lp115
I18
aI10
aI0
aI0
aa(lp116
I7
aI2
aI0
aI0
aa(lp117
I38
aI28
aI0
aI0
aa(lp118
I3
aI1
aI0
aI0
aa(lp119
I4
aI2
aI0
aI0
aa(lp120
I42
aI14
aI0
aI0
aa(lp121
I20
aI8
aI0
aI0
aa(lp122
I16
aI13
aI0
aI0
aa(lp123
I5
aI2
aI0
aI0
aa(lp124
I11
aI6
aI0
aI0
aa(lp125
I5
aI2
aI0
aI0
aa(lp126
I8
aI2
aI0
aI0
aa(lp127
I11
aI6
aI0
aI0
aa(lp128
I16
aI12
aI0
aI0
aa(lp129
I7
aI4
aI0
aI0
aa(lp130
I8
aI4
aI0
aI0
aa(lp131
I23
aI5
aI0
aI0
aa(lp132
I12
aI6
aI0
aI0
aa(lp133
I20
aI12
aI0
aI0
aa(lp134
I4
aI2
aI0
aI0
aa(lp135
I5
aI1
aI0
aI0
aa(lp136
I42
aI33
aI0
aI0
aa(lp137
I14
aI9
aI0
aI0
aa(lp138
I22
aI16
aI0
aI0
aa(lp139
I13
aI9
aI0
aI0
aa(lp140
I19
aI12
aI0
aI0
aa(lp141
I28
aI20
aI0
aI0
aa(lp142
I23
aI17
aI0
aI0
aa(lp143
I5
aI2
aI0
aI0
aa(lp144
I28
aI20
aI0
aI0
aa(lp145
I2
aI0
aI0
aI0
aa(lp146
I6
aI0
aI0
aI0
aa(lp147
I28
aI20
aI0
aI0
aa(lp148
I3
aI0
aI0
aI0
aa(lp149
I14
aI10
aI0
aI0
aa(lp150
I4
aI2
aI0
aI0
aa(lp151
I19
aI9
aI0
aI0
aa(lp152
I18
aI8
aI0
aI0
aa(lp153
I4
aI1
aI0
aI0
aa(lp154
I4
aI1
aI0
aI0
aa(lp155
I15
aI9
aI0
aI0
aa(lp156
I21
aI15
aI0
aI0
aa(lp157
I13
aI9
aI0
aI0
aa(lp158
I7
aI3
aI0
aI0
aa(lp159
I10
aI5
aI0
aI0
aa(lp160
I3
aI2
aI0
aI0
aa(lp161
I4
aI2
aI0
aI0
aa(lp162
I17
aI9
aI0
aI0
aa(lp163
I10
aI6
aI0
aI0
aa(lp164
I13
aI6
aI0
aI0
aa(lp165
I23
aI18
aI0
aI0
aa(lp166
I15
aI9
aI0
aI0
aa(lp167
I16
aI10
aI0
aI0
aa(lp168
I4
aI0
aI0
aI0
aa(lp169
I4
aI2
aI0
aI0
aa(lp170
I21
aI10
aI0
aI0
aa(lp171
I4
aI2
aI0
aI0
aa(lp172
I27
aI16
aI0
aI0
aa(lp173
I2
aI1
aI0
aI0
aa(lp174
I12
aI10
aI0
aI0
aa(lp175
I24
aI19
aI0
aI0
aa(lp176
I26
aI21
aI0
aI0
aa(lp177
I10
aI8
aI0
aI0
aa(lp178
I17
aI12
aI0
aI0
aa(lp179
I14
aI12
aI0
aI0
aa(lp180
I6
aI1
aI0
aI0
aa(lp181
I9
aI5
aI0
aI0
aa(lp182
I8
aI5
aI0
aI0
aa(lp183
I13
aI6
aI0
aI0
aa(lp184
I6
aI3
aI0
aI0
aa(lp185
I2
aI1
aI0
aI0
aa(lp186
I40
aI25
aI0
aI0
aa(lp187
I27
aI21
aI0
aI0
aa(lp188
I17
aI12
aI0
aI0
aa(lp189
I2
aI0
aI0
aI0
aa(lp190
I8
aI3
aI0
aI0
aa(lp191
I30
aI18
aI0
aI0
aa(lp192
I53
aI37
aI0
aI0
aa(lp193
I6
aI3
aI0
aI0
aa(lp194
I5
aI2
aI0
aI0
aa(lp195
I36
aI17
aI0
aI0
aa(lp196
I11
aI6
aI0
aI0
aa(lp197
I24
aI21
aI0
aI0
aa(lp198
I24
aI10
aI0
aI0
aa(lp199
I7
aI3
aI0
aI0
aa(lp200
I24
aI15
aI0
aI0
aa(lp201
I2
aI1
aI0
aI0
aa(lp202
I6
aI3
aI0
aI0
aa(lp203
I17
aI9
aI0
aI0
aa(lp204
I13
aI8
aI0
aI0
aa(lp205
I9
aI4
aI0
aI0
aa(lp206
I16
aI11
aI0
aI0
aa(lp207
I25
aI18
aI0
aI0
aa(lp208
I12
aI5
aI0
aI0
aa(lp209
I17
aI15
aI0
aI0
aa(lp210
I7
aI3
aI0
aI0
aa(lp211
I11
aI8
aI0
aI0
aa(lp212
I5
aI0
aI0
aI0
aa(lp213
I12
aI7
aI0
aI0
aa(lp214
I5
aI2
aI0
aI0
aa(lp215
I7
aI3
aI0
aI0
aa(lp216
I41
aI24
aI0
aI0
aa(lp217
I15
aI12
aI0
aI0
aa(lp218
I36
aI24
aI0
aI0
aa(lp219
I5
aI2
aI0
aI0
aa(lp220
I5
aI2
aI0
aI0
aa(lp221
I12
aI9
aI0
aI0
aa(lp222
I8
aI6
aI0
aI0
aa(lp223
I6
aI2
aI0
aI0
aa(lp224
I6
aI3
aI0
aI0
aa(lp225
I26
aI21
aI0
aI0
aa(lp226
I25
aI21
aI0
aI0
aa(lp227
I18
aI11
aI0
aI0
aa(lp228
I3
aI0
aI0
aI0
aa(lp229
I10
aI3
aI0
aI0
aa(lp230
I6
aI4
aI0
aI0
aa(lp231
I25
aI9
aI0
aI0
aa(lp232
I8
aI4
aI0
aI0
aa(lp233
I3
aI2
aI0
aI0
aa(lp234
I17
aI11
aI0
aI0
aa(lp235
I2
aI1
aI0
aI0
aa(lp236
I14
aI10
aI0
aI0
aa(lp237
I5
aI2
aI0
aI0
aa(lp238
I5
aI2
aI0
aI0
aa(lp239
I21
aI11
aI0
aI0
aa(lp240
I24
aI12
aI0
aI0
aa(lp241
I27
aI13
aI0
aI0
aa(lp242
I20
aI13
aI0
aI0
aa(lp243
I3
aI1
aI0
aI0
aa(lp244
I13
aI6
aI0
aI0
aa(lp245
I19
aI11
aI0
aI0
aa(lp246
I28
aI13
aI0
aI0
aa(lp247
I26
aI18
aI0
aI0
aa(lp248
I17
aI10
aI0
aI0
aa(lp249
I27
aI19
aI0
aI0
aa(lp250
I20
aI11
aI0
aI0
aa(lp251
I2
aI1
aI0
aI0
aa(lp252
I9
aI6
aI0
aI0
aa(lp253
I1
aI0
aI0
aI0
aa(lp254
I18
aI12
aI0
aI0
aa(lp255
I11
aI9
aI0
aI0
aa(lp256
I19
aI14
aI0
aI0
aa(lp257
I12
aI6
aI0
aI0
aa(lp258
I4
aI3
aI0
aI0
aa(lp259
I9
aI6
aI0
aI0
aa(lp260
I19
aI13
aI0
aI0
aa(lp261
I3
aI2
aI0
aI0
aa(lp262
I11
aI3
aI0
aI0
aa(lp263
I6
aI0
aI0
aI0
aa(lp264
I3
aI1
aI0
aI0
aa(lp265
I18
aI13
aI0
aI0
aa(lp266
I2
aI1
aI0
aI0
aa(lp267
I24
aI12
aI0
aI0
aa(lp268
I28
aI17
aI0
aI0
aa(lp269
I15
aI9
aI0
aI0
aa(lp270
I5
aI2
aI0
aI0
aa(lp271
I25
aI19
aI0
aI0
aa(lp272
I16
aI3
aI0
aI0
aa(lp273
I6
aI4
aI0
aI0
aa(lp274
I25
aI15
aI0
aI0
aa(lp275
I25
aI17
aI0
aI0
aa(lp276
I6
aI4
aI0
aI0
aa(lp277
I2
aI0
aI0
aI0
aa(lp278
I6
aI3
aI0
aI0
aa(lp279
I14
aI7
aI0
aI0
aa(lp280
I21
aI17
aI0
aI0
aa(lp281
I2
aI1
aI0
aI0
aa(lp282
I5
aI2
aI0
aI0
aa(lp283
I12
aI7
aI0
aI0
aa(lp284
I6
aI2
aI0
aI0
aa(lp285
I7
aI2
aI0
aI0
aa(lp286
I13
aI6
aI0
aI0
aa(lp287
I8
aI3
aI0
aI0
aa(lp288
I3
aI1
aI0
aI0
aa(lp289
I6
aI4
aI0
aI0
aa(lp290
I12
aI8
aI0
aI0
aa(lp291
I27
aI22
aI0
aI0
aa(lp292
I8
aI3
aI0
aI0
aa(lp293
I11
aI5
aI0
aI0
aa(lp294
I19
aI9
aI0
aI0
aa(lp295
I3
aI0
aI0
aI0
aa(lp296
I45
aI33
aI0
aI0
aa(lp297
I11
aI10
aI0
aI0
aa(lp298
I25
aI18
aI0
aI0
aa(lp299
I17
aI11
aI0
aI0
aa(lp300
I14
aI7
aI0
aI0
aa(lp301
I4
aI3
aI0
aI0
aa(lp302
I17
aI9
aI0
aI0
aa(lp303
I7
aI5
aI0
aI0
aa(lp304
I2
aI1
aI0
aI0
aa(lp305
I11
aI8
aI0
aI0
aa(lp306
I59
aI38
aI0
aI0
aa(lp307
I45
aI29
aI0
aI0
aa(lp308
I25
aI22
aI0
aI0
aa(lp309
I4
aI3
aI0
aI0
aa(lp310
I33
aI21
aI0
aI0
aa(lp311
I3
aI0
aI0
aI0
aa(lp312
I13
aI8
aI0
aI0
aa(lp313
I22
aI15
aI0
aI0
aa(lp314
I5
aI2
aI0
aI0
aa(lp315
I33
aI23
aI0
aI0
aa(lp316
I26
aI13
aI0
aI0
aa(lp317
I6
aI4
aI0
aI0
aa(lp318
I30
aI20
aI0
aI0
aa(lp319
I3
aI1
aI0
aI0
aa(lp320
I5
aI1
aI0
aI0
aa(lp321
I6
aI3
aI0
aI0
aa(lp322
I2
aI0
aI0
aI0
aa(lp323
I14
aI6
aI0
aI0
aa(lp324
I14
aI7
aI0
aI0
aa(lp325
I8
aI6
aI0
aI0
aa(lp326
I20
aI8
aI0
aI0
aa(lp327
I12
aI8
aI0
aI0
aa(lp328
I18
aI13
aI0
aI0
aa(lp329
I60
aI36
aI0
aI0
aa(lp330
I16
aI11
aI0
aI0
aa(lp331
I2
aI0
aI0
aI0
aa(lp332
I13
aI9
aI0
aI0
aa(lp333
I21
aI15
aI0
aI0
aa(lp334
I41
aI27
aI0
aI0
aa(lp335
I23
aI17
aI0
aI0
aa(lp336
I19
aI13
aI0
aI0
aa(lp337
I21
aI13
aI0
aI0
aa(lp338
I1
aI0
aI0
aI0
aa(lp339
I46
aI22
aI0
aI0
aa(lp340
I24
aI18
aI0
aI0
aa(lp341
I7
aI3
aI0
aI0
aa(lp342
I3
aI2
aI0
aI0
aa(lp343
I26
aI22
aI0
aI0
aa(lp344
I7
aI4
aI0
aI0
aa(lp345
I17
aI12
aI0
aI0
aa(lp346
I34
aI18
aI0
aI0
aa(lp347
I9
aI3
aI0
aI0
aa(lp348
I2
aI0
aI0
aI0
aa(lp349
I17
aI3
aI0
aI0
aa(lp350
I21
aI14
aI0
aI0
aa(lp351
I6
aI2
aI0
aI0
aa(lp352
I8
aI3
aI0
aI0
aa(lp353
I12
aI8
aI0
aI0
aa(lp354
I13
aI10
aI0
aI0
aa(lp355
I2
aI1
aI0
aI0
aa(lp356
I22
aI16
aI0
aI0
aa(lp357
I5
aI3
aI0
aI0
aa(lp358
I23
aI20
aI0
aI0
aa(lp359
I4
aI1
aI0
aI0
aa(lp360
I12
aI10
aI0
aI0
aa(lp361
I5
aI1
aI0
aI0
aa(lp362
I3
aI1
aI0
aI0
aa(lp363
I11
aI7
aI0
aI0
aa(lp364
I5
aI3
aI0
aI0
aa(lp365
I14
aI9
aI0
aI0
aa(lp366
I15
aI12
aI0
aI0
aa(lp367
I4
aI3
aI0
aI0
aa(lp368
I32
aI14
aI0
aI0
aa(lp369
I20
aI8
aI0
aI0
aa(lp370
I18
aI7
aI0
aI0
aa(lp371
I20
aI13
aI0
aI0
aa(lp372
I29
aI24
aI0
aI0
aa(lp373
I21
aI13
aI0
aI0
aa(lp374
I32
aI20
aI0
aI0
aa(lp375
I30
aI20
aI0
aI0
aa(lp376
I4
aI2
aI0
aI0
aa(lp377
I31
aI15
aI0
aI0
aa(lp378
I16
aI10
aI0
aI0
aa(lp379
I17
aI8
aI0
aI0
aa(lp380
I16
aI10
aI0
aI0
aa(lp381
I5
aI2
aI0
aI0
aa(lp382
I2
aI1
aI0
aI0
aa(lp383
I44
aI37
aI0
aI0
aa(lp384
I24
aI18
aI0
aI0
aa(lp385
I25
aI17
aI0
aI0
aa(lp386
I9
aI3
aI0
aI0
aa(lp387
I22
aI15
aI0
aI0
aa(lp388
I17
aI11
aI0
aI0
aa(lp389
I20
aI11
aI0
aI0
aa(lp390
I12
aI7
aI0
aI0
aa(lp391
I2
aI0
aI0
aI0
aa(lp392
I15
aI22
aI0
aI0
aa(lp393
I7
aI5
aI0
aI0
aa(lp394
I2
aI0
aI0
aI0
aa(lp395
I16
aI11
aI0
aI0
aa(lp396
I6
aI2
aI0
aI0
aa(lp397
I3
aI0
aI0
aI0
aa(lp398
I26
aI19
aI0
aI0
aa(lp399
I11
aI7
aI0
aI0
aa(lp400
I5
aI1
aI0
aI0
aa(lp401
I7
aI4
aI0
aI0
aa(lp402
I27
aI21
aI0
aI0
aa(lp403
I14
aI6
aI0
aI0
aa(lp404
I29
aI20
aI0
aI0
aa(lp405
I8
aI5
aI0
aI0
aa(lp406
I11
aI3
aI0
aI0
aa(lp407
I16
aI11
aI0
aI0
aa(lp408
I19
aI15
aI0
aI0
aa(lp409
I6
aI3
aI0
aI0
aa(lp410
I19
aI16
aI0
aI0
aa(lp411
I17
aI11
aI0
aI0
aa(lp412
I19
aI14
aI0
aI0
aa(lp413
I2
aI0
aI0
aI0
aa(lp414
I3
aI2
aI0
aI0
aa(lp415
I19
aI14
aI0
aI0
aa(lp416
I5
aI3
aI0
aI0
aa(lp417
I4
aI1
aI0
aI0
aa(lp418
I1
aI0
aI0
aI0
aa(lp419
I25
aI17
aI0
aI0
aa(lp420
I3
aI2
aI0
aI0
aa(lp421
I8
aI2
aI0
aI0
aa(lp422
I9
aI6
aI0
aI0
aa(lp423
I20
aI16
aI0
aI0
aa(lp424
I11
aI5
aI0
aI0
aa(lp425
I27
aI18
aI0
aI0
aa(lp426
I16
aI1
aI0
aI0
aa(lp427
I13
aI8
aI0
aI0
aa(lp428
I15
aI9
aI0
aI0
aa(lp429
I24
aI17
aI0
aI0
aa(lp430
I9
aI7
aI0
aI0
aa(lp431
I7
aI4
aI0
aI0
aa(lp432
I8
aI4
aI0
aI0
aa(lp433
I2
aI1
aI0
aI0
aa(lp434
I14
aI7
aI0
aI0
aa(lp435
I19
aI13
aI0
aI0
aa(lp436
I20
aI9
aI0
aI0
aa(lp437
I20
aI9
aI0
aI0
aa(lp438
I5
aI3
aI0
aI0
aa(lp439
I11
aI8
aI0
aI0
aa(lp440
I16
aI13
aI0
aI0
aa(lp441
I2
aI1
aI0
aI0
aa(lp442
I3
aI1
aI0
aI0
aa(lp443
I7
aI4
aI0
aI0
aa(lp444
I17
aI15
aI0
aI0
aa(lp445
I1
aI0
aI0
aI0
aa(lp446
I6
aI3
aI0
aI0
aa(lp447
I11
aI8
aI0
aI0
aa(lp448
I19
aI11
aI0
aI0
aa(lp449
I15
aI6
aI0
aI0
aa(lp450
I12
aI7
aI0
aI0
aa(lp451
I13
aI9
aI0
aI0
aa(lp452
I5
aI1
aI0
aI0
aa(lp453
I24
aI19
aI0
aI0
aa(lp454
I26
aI16
aI0
aI0
aa(lp455
I20
aI15
aI0
aI0
aa(lp456
I29
aI15
aI0
aI0
aa(lp457
I3
aI1
aI0
aI0
aa(lp458
I25
aI20
aI0
aI0
aa(lp459
I31
aI19
aI0
aI0
aa(lp460
I26
aI23
aI0
aI0
aa(lp461
I6
aI3
aI0
aI0
aa(lp462
I11
aI8
aI0
aI0
aa(lp463
I9
aI7
aI0
aI0
aa(lp464
I29
aI23
aI0
aI0
aa(lp465
I25
aI14
aI0
aI0
aa(lp466
I5
aI1
aI0
aI0
aa(lp467
I13
aI7
aI0
aI0
aa(lp468
I16
aI10
aI0
aI0
aa(lp469
I22
aI13
aI0
aI0
aa(lp470
I35
aI22
aI0
aI0
aa(lp471
I9
aI5
aI0
aI0
aa(lp472
I9
aI7
aI0
aI0
aa(lp473
I10
aI3
aI0
aI0
aa(lp474
I23
aI13
aI0
aI0
aa(lp475
I16
aI11
aI0
aI0
aa(lp476
I2
aI1
aI0
aI0
aa(lp477
I15
aI10
aI0
aI0
aa(lp478
I16
aI6
aI0
aI0
aa(lp479
I11
aI4
aI0
aI0
aa(lp480
I35
aI23
aI0
aI0
aa(lp481
I3
aI1
aI0
aI0
aa(lp482
I13
aI8
aI0
aI0
aa(lp483
I39
aI29
aI0
aI0
aa(lp484
I15
aI8
aI0
aI0
aa(lp485
I5
aI3
aI0
aI0
aa(lp486
I14
aI6
aI0
aI0
aa(lp487
I14
aI8
aI0
aI0
aa(lp488
I14
aI10
aI0
aI0
aa(lp489
I4
aI2
aI0
aI0
aa(lp490
I29
aI24
aI0
aI0
aa(lp491
I8
aI3
aI0
aI0
aa(lp492
I32
aI24
aI0
aI0
aa(lp493
I13
aI7
aI0
aI0
aa(lp494
I3
aI2
aI0
aI0
aa(lp495
I16
aI10
aI0
aI0
aa(lp496
I10
aI1
aI0
aI0
aa(lp497
I3
aI1
aI0
aI0
aa(lp498
I18
aI12
aI0
aI0
aa(lp499
I13
aI7
aI0
aI0
aa(lp500
I29
aI17
aI0
aI0
aa(lp501
I10
aI7
aI0
aI0
aa(lp502
I11
aI8
aI0
aI0
aa(lp503
I27
aI13
aI0
aI0
aa(lp504
I5
aI3
aI0
aI0
aa(lp505
I20
aI12
aI0
aI0
aa(lp506
I25
aI17
aI0
aI0
aa(lp507
I12
aI6
aI0
aI0
aa(lp508
I27
aI15
aI0
aI0
aa(lp509
I6
aI2
aI0
aI0
aa(lp510
I32
aI25
aI0
aI0
aa(lp511
I9
aI5
aI0
aI0
aa(lp512
I16
aI12
aI0
aI0
aa(lp513
I13
aI9
aI0
aI0
aa(lp514
I29
aI19
aI0
aI0
aa(lp515
I6
aI1
aI0
aI0
aa(lp516
I2
aI1
aI0
aI0
aa(lp517
I7
aI2
aI0
aI0
aa(lp518
I16
aI11
aI0
aI0
aa(lp519
I1
aI0
aI0
aI0
aa(lp520
I24
aI17
aI0
aI0
aa(lp521
I7
aI3
aI0
aI0
aa(lp522
I26
aI19
aI0
aI0
aa(lp523
I13
aI9
aI0
aI0
aa(lp524
I19
aI14
aI0
aI0
aa(lp525
I3
aI1
aI0
aI0
aa(lp526
I9
aI0
aI0
aI0
aa(lp527
I10
aI5
aI0
aI0
aa(lp528
I10
aI7
aI0
aI0
aa(lp529
I4
aI2
aI0
aI0
aa(lp530
I18
aI10
aI0
aI0
aa(lp531
I12
aI8
aI0
aI0
aa(lp532
I24
aI9
aI0
aI0
aa(lp533
I41
aI32
aI0
aI0
aa(lp534
I1
aI0
aI0
aI0
aa(lp535
I4
aI2
aI0
aI0
aa(lp536
I6
aI4
aI0
aI0
aa(lp537
I28
aI14
aI0
aI0
aa(lp538
I2
aI1
aI0
aI0
aa(lp539
I30
aI18
aI0
aI0
aa(lp540
I5
aI2
aI0
aI0
aa(lp541
I9
aI2
aI0
aI0
aa(lp542
I33
aI26
aI0
aI0
aa(lp543
I17
aI11
aI0
aI0
aa(lp544
I4
aI1
aI0
aI0
aa(lp545
I9
aI8
aI0
aI0
aa(lp546
I23
aI14
aI0
aI0
aa(lp547
I7
aI2
aI0
aI0
aa(lp548
I5
aI2
aI0
aI0
aa(lp549
I34
aI26
aI0
aI0
aa(lp550
I10
aI3
aI0
aI0
aa(lp551
I5
aI1
aI0
aI0
aa(lp552
I10
aI7
aI0
aI0
aa(lp553
I7
aI1
aI0
aI0
aa(lp554
I7
aI3
aI0
aI0
aa(lp555
I7
aI5
aI0
aI0
aa(lp556
I1
aI0
aI0
aI0
aa(lp557
I19
aI15
aI0
aI0
aa(lp558
I22
aI16
aI0
aI0
aa(lp559
I6
aI4
aI0
aI0
aa(lp560
I4
aI0
aI0
aI0
aa(lp561
I10
aI8
aI0
aI0
aa(lp562
I15
aI6
aI0
aI0
aa(lp563
I22
aI11
aI0
aI0
aa(lp564
I4
aI2
aI0
aI0
aa(lp565
I4
aI3
aI0
aI0
aa(lp566
I17
aI9
aI0
aI0
aa(lp567
I8
aI5
aI0
aI0
aa(lp568
I4
aI1
aI0
aI0
aa(lp569
I13
aI10
aI0
aI0
aa(lp570
I8
aI4
aI0
aI0
aa(lp571
I2
aI1
aI0
aI0
aa(lp572
I11
aI7
aI0
aI0
aa(lp573
I13
aI8
aI0
aI0
aa(lp574
I2
aI0
aI0
aI0
aa(lp575
I15
aI11
aI0
aI0
aa(lp576
I7
aI2
aI0
aI0
aa(lp577
I12
aI6
aI0
aI0
aa(lp578
I20
aI12
aI0
aI0
aa(lp579
I19
aI15
aI0
aI0
aa(lp580
I6
aI5
aI0
aI0
aa(lp581
I31
aI23
aI0
aI0
aa(lp582
I13
aI8
aI0
aI0
aa(lp583
I20
aI16
aI0
aI0
aa(lp584
I7
aI5
aI0
aI0
aa(lp585
I18
aI10
aI0
aI0
aa(lp586
I4
aI0
aI0
aI0
aa(lp587
I40
aI30
aI0
aI0
aa(lp588
I2
aI1
aI0
aI0
aa(lp589
I10
aI8
aI0
aI0
aa(lp590
I10
aI4
aI0
aI0
aa(lp591
I12
aI4
aI0
aI0
aa(lp592
I12
aI6
aI0
aI0
aa(lp593
I5
aI3
aI0
aI0
aa(lp594
I16
aI5
aI0
aI0
aa(lp595
I11
aI7
aI0
aI0
aa(lp596
I18
aI13
aI0
aI0
aa(lp597
I3
aI2
aI0
aI0
aa(lp598
I17
aI8
aI0
aI0
aa(lp599
I9
aI5
aI0
aI0
aa(lp600
I7
aI1
aI0
aI0
aa(lp601
I17
aI7
aI0
aI0
aa(lp602
I7
aI4
aI0
aI0
aa(lp603
I8
aI0
aI0
aI0
aa(lp604
I46
aI37
aI0
aI0
aa(lp605
I38
aI22
aI0
aI0
aa(lp606
I13
aI9
aI0
aI0
aa(lp607
I34
aI24
aI0
aI0
aa(lp608
I32
aI19
aI0
aI0
aa(lp609
I-1
aI-1
aI-1
aI-1
aa(lp610
I10
aI5
aI0
aI0
aa(lp611
I4
aI1
aI0
aI0
aa(lp612
I17
aI12
aI0
aI0
aa(lp613
I4
aI3
aI0
aI0
aa(lp614
I4
aI1
aI0
aI0
aa(lp615
I38
aI20
aI0
aI0
aa(lp616
I25
aI18
aI0
aI0
aa(lp617
I15
aI10
aI0
aI0
aa(lp618
I5
aI0
aI0
aI0
aa(lp619
I30
aI19
aI0
aI0
aa(lp620
I7
aI3
aI0
aI0
aa(lp621
I13
aI8
aI0
aI0
aa(lp622
I18
aI9
aI0
aI0
aa(lp623
I8
aI6
aI0
aI0
aa(lp624
I5
aI3
aI0
aI0
aa(lp625
I5
aI2
aI0
aI0
aa(lp626
I21
aI16
aI0
aI0
aa(lp627
I7
aI2
aI0
aI0
aa(lp628
I1
aI0
aI0
aI0
aa(lp629
I18
aI5
aI0
aI0
aa(lp630
I21
aI15
aI0
aI0
aa(lp631
I18
aI13
aI0
aI0
aa(lp632
I25
aI17
aI0
aI0
aa(lp633
I21
aI12
aI0
aI0
aa(lp634
I8
aI6
aI0
aI0
aa(lp635
I5
aI1
aI0
aI0
aa(lp636
I34
aI12
aI0
aI0
aa(lp637
I18
aI11
aI0
aI0
aa(lp638
I6
aI1
aI0
aI0
aa(lp639
I16
aI6
aI0
aI0
aa(lp640
I12
aI8
aI0
aI0
aa(lp641
I15
aI11
aI0
aI0
aa(lp642
I2
aI1
aI0
aI0
aa(lp643
I10
aI4
aI0
aI0
aa(lp644
I34
aI26
aI0
aI0
aa(lp645
I24
aI18
aI0
aI0
aa(lp646
I8
aI3
aI0
aI0
aa(lp647
I16
aI12
aI0
aI0
aa(lp648
I14
aI5
aI0
aI0
aa(lp649
I7
aI3
aI0
aI0
aa(lp650
I17
aI11
aI0
aI0
aa(lp651
I4
aI1
aI0
aI0
aa(lp652
I11
aI8
aI0
aI0
aa(lp653
I11
aI9
aI0
aI0
aa(lp654
I1
aI0
aI0
aI0
aa(lp655
I20
aI12
aI0
aI0
aa(lp656
I3
aI2
aI0
aI0
aa(lp657
I10
aI3
aI0
aI0
aa(lp658
I25
aI16
aI0
aI0
aa(lp659
I13
aI4
aI0
aI0
aa(lp660
I26
aI17
aI0
aI0
aa(lp661
I11
aI8
aI0
aI0
aa(lp662
I36
aI26
aI0
aI0
aa(lp663
I26
aI11
aI0
aI0
aa(lp664
I7
aI2
aI0
aI0
aa(lp665
I14
aI5
aI0
aI0
aa(lp666
I22
aI17
aI0
aI0
aa(lp667
I2
aI1
aI0
aI0
aa(lp668
I3
aI0
aI0
aI0
aa(lp669
I6
aI4
aI0
aI0
aa(lp670
I17
aI11
aI0
aI0
aa(lp671
I4
aI2
aI0
aI0
aa(lp672
I8
aI3
aI0
aI0
aa(lp673
I7
aI1
aI0
aI0
aa(lp674
I38
aI25
aI0
aI0
aa(lp675
I3
aI1
aI0
aI0
aa(lp676
I17
aI12
aI0
aI0
aa(lp677
I5
aI2
aI0
aI0
aa(lp678
I1
aI0
aI0
aI0
aa(lp679
I7
aI3
aI0
aI0
aa(lp680
I2
aI1
aI0
aI0
aa(lp681
I26
aI12
aI0
aI0
aa(lp682
I21
aI14
aI0
aI0
aa(lp683
I11
aI9
aI0
aI0
aa(lp684
I14
aI11
aI0
aI0
aa(lp685
I11
aI8
aI0
aI0
aa(lp686
I8
aI5
aI0
aI0
aa(lp687
I32
aI27
aI0
aI0
aa(lp688
I5
aI2
aI0
aI0
aa(lp689
I6
aI3
aI0
aI0
aa(lp690
I3
aI2
aI0
aI0
aa(lp691
I22
aI16
aI0
aI0
aa(lp692
I4
aI3
aI0
aI0
aa(lp693
I10
aI6
aI0
aI0
aa(lp694
I5
aI2
aI0
aI0
aa(lp695
I10
aI3
aI0
aI0
aa(lp696
I18
aI9
aI0
aI0
aa(lp697
I6
aI3
aI0
aI0
aa(lp698
I13
aI7
aI0
aI0
aa(lp699
I15
aI9
aI0
aI0
aa(lp700
I9
aI5
aI0
aI0
aa(lp701
I13
aI7
aI0
aI0
aa(lp702
I6
aI2
aI0
aI0
aa(lp703
I13
aI9
aI0
aI0
aa(lp704
I20
aI3
aI0
aI0
aa(lp705
I12
aI3
aI0
aI0
aa(lp706
I24
aI15
aI0
aI0
aa(lp707
I11
aI7
aI0
aI0
aa(lp708
I4
aI3
aI0
aI0
aa(lp709
I13
aI0
aI0
aI0
aa(lp710
I20
aI13
aI0
aI0
aa(lp711
I8
aI4
aI0
aI0
aa(lp712
I11
aI8
aI0
aI0
aa(lp713
I19
aI12
aI0
aI0
aa(lp714
I22
aI8
aI0
aI0
aa(lp715
I9
aI8
aI0
aI0
aa(lp716
I5
aI4
aI0
aI0
aa(lp717
I35
aI29
aI0
aI0
aa(lp718
I13
aI9
aI0
aI0
aa(lp719
I13
aI9
aI0
aI0
aa(lp720
I14
aI10
aI0
aI0
aa(lp721
I4
aI3
aI0
aI0
aa(lp722
I16
aI3
aI0
aI0
aa(lp723
I24
aI13
aI0
aI0
aa(lp724
I5
aI4
aI0
aI0
aa(lp725
I4
aI2
aI0
aI0
aa(lp726
I13
aI8
aI0
aI0
aa(lp727
I3
aI1
aI0
aI0
aa(lp728
I4
aI2
aI0
aI0
aa(lp729
I14
aI11
aI0
aI0
aa(lp730
I10
aI7
aI0
aI0
aa(lp731
I18
aI11
aI0
aI0
aa.